target datalayout = "e-m:e-p270:32:32-p271:32:32-p272:64:64-i64:64-i128:128-f80:128-n8:16:32:64-S128"
target triple = "x86_64-pc-linux-gnu"

%struct.msghdr = type { ptr, i32, ptr, i64, ptr, i64, i32 }
%struct.iovec = type { ptr, i64 }
%struct.cmsghdr = type { i64, i32, i32, [0 x i8] }

@.str.28 = private unnamed_addr constant [26 x i8] c"%s: failed to send fd: %m\00", align 1
@__func__.send_fd_over_socket = private unnamed_addr constant [20 x i8] c"send_fd_over_socket\00", align 1

; Function Attrs: nounwind uwtable
define dso_local void @send_fd_over_socket(i32 noundef %0, i32 noundef %1) #0 {
  %3 = alloca i32, align 4
  %4 = alloca i32, align 4
  %5 = alloca %struct.msghdr, align 8
  %6 = alloca ptr, align 8
  %7 = alloca [24 x i8], align 16
  %8 = alloca i8, align 1
  %9 = alloca [1 x %struct.iovec], align 16
  store i32 %0, ptr %3, align 4
  store i32 %1, ptr %4, align 4
  call void @llvm.lifetime.start.p0(i64 56, ptr %5) #10
  call void @llvm.memset.p0.i64(ptr align 8 %5, i8 0, i64 56, i1 false)
  call void @llvm.lifetime.start.p0(i64 8, ptr %6) #10
  call void @llvm.lifetime.start.p0(i64 24, ptr %7) #10
  call void @llvm.lifetime.start.p0(i64 1, ptr %8) #10
  store i8 0, ptr %8, align 1
  call void @llvm.lifetime.start.p0(i64 16, ptr %9) #10
  %10 = getelementptr inbounds [24 x i8], ptr %7, i64 0, i64 0
  call void @llvm.memset.p0.i64(ptr align 16 %10, i8 0, i64 24, i1 false)
  %11 = getelementptr inbounds [1 x %struct.iovec], ptr %9, i64 0, i64 0
  %12 = getelementptr inbounds nuw %struct.iovec, ptr %11, i32 0, i32 0
  store ptr %8, ptr %12, align 16
  %13 = getelementptr inbounds [1 x %struct.iovec], ptr %9, i64 0, i64 0
  %14 = getelementptr inbounds nuw %struct.iovec, ptr %13, i32 0, i32 1
  store i64 1, ptr %14, align 8
  %15 = getelementptr inbounds [1 x %struct.iovec], ptr %9, i64 0, i64 0
  %16 = getelementptr inbounds nuw %struct.msghdr, ptr %5, i32 0, i32 2
  store ptr %15, ptr %16, align 8
  %17 = getelementptr inbounds nuw %struct.msghdr, ptr %5, i32 0, i32 3
  store i64 1, ptr %17, align 8
  %18 = getelementptr inbounds [24 x i8], ptr %7, i64 0, i64 0
  %19 = getelementptr inbounds nuw %struct.msghdr, ptr %5, i32 0, i32 4
  store ptr %18, ptr %19, align 8
  %20 = getelementptr inbounds nuw %struct.msghdr, ptr %5, i32 0, i32 5
  store i64 24, ptr %20, align 8
  %21 = getelementptr inbounds nuw %struct.msghdr, ptr %5, i32 0, i32 5
  %22 = load i64, ptr %21, align 8
  %23 = icmp uge i64 %22, 16
  br i1 %23, label %24, label %27

24:                                               ; preds = %2
  %25 = getelementptr inbounds nuw %struct.msghdr, ptr %5, i32 0, i32 4
  %26 = load ptr, ptr %25, align 8
  br label %28

27:                                               ; preds = %2
  br label %28

28:                                               ; preds = %27, %24
  %29 = phi ptr [ %26, %24 ], [ null, %27 ]
  store ptr %29, ptr %6, align 8
  %30 = load ptr, ptr %6, align 8
  %31 = getelementptr inbounds nuw %struct.cmsghdr, ptr %30, i32 0, i32 1
  store i32 1, ptr %31, align 8
  %32 = load ptr, ptr %6, align 8
  %33 = getelementptr inbounds nuw %struct.cmsghdr, ptr %32, i32 0, i32 2
  store i32 1, ptr %33, align 4
  %34 = load ptr, ptr %6, align 8
  %35 = getelementptr inbounds nuw %struct.cmsghdr, ptr %34, i32 0, i32 0
  store i64 20, ptr %35, align 8
  %36 = load ptr, ptr %6, align 8
  %37 = getelementptr inbounds nuw %struct.cmsghdr, ptr %36, i32 0, i32 3
  %38 = getelementptr inbounds [0 x i8], ptr %37, i64 0, i64 0
  call void @llvm.memmove.p0.p0.i64(ptr align 8 %38, ptr align 4 %4, i64 4, i1 false)
  %39 = load ptr, ptr %6, align 8
  %40 = getelementptr inbounds nuw %struct.cmsghdr, ptr %39, i32 0, i32 0
  %41 = load i64, ptr %40, align 8
  %42 = getelementptr inbounds nuw %struct.msghdr, ptr %5, i32 0, i32 5
  store i64 %41, ptr %42, align 8
  %43 = load i32, ptr %3, align 4
  %44 = call i64 @sendmsg(i32 noundef %43, ptr noundef %5, i32 noundef 0)
  %45 = icmp slt i64 %44, 0
  br i1 %45, label %46, label %48

46:                                               ; preds = %28
  %47 = call i32 (ptr, ...) @error(ptr noundef @.str.28, ptr noundef @__func__.send_fd_over_socket)
  br label %48

48:                                               ; preds = %46, %28
  call void @llvm.lifetime.end.p0(i64 16, ptr %9) #10
  call void @llvm.lifetime.end.p0(i64 1, ptr %8) #10
  call void @llvm.lifetime.end.p0(i64 24, ptr %7) #10
  call void @llvm.lifetime.end.p0(i64 8, ptr %6) #10
  call void @llvm.lifetime.end.p0(i64 56, ptr %5) #10
  ret void
}