; Function Attrs: nounwind uwtable
define dso_local void @send_fd_over_socket(i32 noundef %0, i32 noundef %1) #0 {
  %3 = alloca %struct.msghdr, align 8
  %4 = alloca [24 x i8], align 16
  %5 = alloca i8, align 1
  %6 = alloca [1 x %struct.iovec], align 16
  call void @llvm.lifetime.start.p0(i64 56, ptr nonnull %3) #10
  call void @llvm.memset.p0.i64(ptr noundef nonnull align 8 dereferenceable(56) %3, i8 0, i64 56, i1 false)
  call void @llvm.lifetime.start.p0(i64 24, ptr nonnull %4) #10
  call void @llvm.lifetime.start.p0(i64 1, ptr nonnull %5) #10
  store i8 0, ptr %5, align 1
  call void @llvm.lifetime.start.p0(i64 16, ptr nonnull %6) #10
  %7 = getelementptr inbounds nuw i8, ptr %4, i64 16
  store i64 0, ptr %7, align 16
  store ptr %5, ptr %6, align 16
  %8 = getelementptr inbounds nuw i8, ptr %6, i64 8
  store i64 1, ptr %8, align 8
  %9 = getelementptr inbounds nuw i8, ptr %3, i64 16
  store ptr %6, ptr %9, align 8
  %10 = getelementptr inbounds nuw i8, ptr %3, i64 24
  store i64 1, ptr %10, align 8
  %11 = getelementptr inbounds nuw i8, ptr %3, i64 32
  store ptr %4, ptr %11, align 8
  %12 = getelementptr inbounds nuw i8, ptr %3, i64 40
  %13 = getelementptr inbounds nuw i8, ptr %4, i64 8
  store i32 1, ptr %13, align 8
  %14 = getelementptr inbounds nuw i8, ptr %4, i64 12
  store i32 1, ptr %14, align 4
  store i64 20, ptr %4, align 16
  %15 = getelementptr inbounds nuw i8, ptr %4, i64 16
  store i32 %1, ptr %15, align 16
  store i64 20, ptr %12, align 8
  %16 = call i64 @sendmsg(i32 noundef %0, ptr noundef nonnull %3, i32 noundef 0) #10
  %17 = icmp slt i64 %16, 0
  br i1 %17, label %18, label %20

18:                                               ; preds = %2
  %19 = call i32 (ptr, ...) @error(ptr noundef nonnull @.str.28, ptr noundef nonnull @__func__.send_fd_over_socket) #10
  br label %20

20:                                               ; preds = %18, %2
  call void @llvm.lifetime.end.p0(i64 16, ptr nonnull %6) #10
  call void @llvm.lifetime.end.p0(i64 1, ptr nonnull %5) #10
  call void @llvm.lifetime.end.p0(i64 24, ptr nonnull %4) #10
  call void @llvm.lifetime.end.p0(i64 56, ptr nonnull %3) #10
  ret void
}